target datalayout = "e-m:e-p270:32:32-p271:32:32-p272:64:64-i64:64-i128:128-f80:128-n8:16:32:64-S128"
target triple = "x86_64-pc-linux-gnu"

%"class.pxrInternal_v0_24__pxrReserved__::pxr_half::half" = type { i16 }

; Function Attrs: mustprogress nounwind uwtable
define linkonce_odr noundef zeroext i16 @_ZNK32pxrInternal_v0_24__pxrReserved__8pxr_half4half4bitsEv(ptr noundef nonnull align 2 dereferenceable(2) %0) #0 comdat align 2 {
  %2 = alloca ptr, align 8
  store ptr %0, ptr %2, align 8
  %3 = load ptr, ptr %2, align 8
  %4 = getelementptr inbounds nuw %"class.pxrInternal_v0_24__pxrReserved__::pxr_half::half", ptr %3, i32 0, i32 0
  %5 = load i16, ptr %4, align 2
  ret i16 %5
}

; Function Attrs: mustprogress uwtable
define void @_ZN32pxrInternal_v0_24__pxrReserved__8pxr_half9printBitsERSoNS0_4halfE(ptr noundef nonnull align 8 dereferenceable(8) %0, i16 %1) #1 {
  %3 = alloca %"class.pxrInternal_v0_24__pxrReserved__::pxr_half::half", align 2
  %4 = alloca ptr, align 8
  %5 = alloca i16, align 2
  %6 = alloca i32, align 4
  %7 = getelementptr inbounds nuw %"class.pxrInternal_v0_24__pxrReserved__::pxr_half::half", ptr %3, i32 0, i32 0
  store i16 %1, ptr %7, align 2
  store ptr %0, ptr %4, align 8
  %8 = call noundef zeroext i16 @_ZNK32pxrInternal_v0_24__pxrReserved__8pxr_half4half4bitsEv(ptr noundef nonnull align 2 dereferenceable(2) %3)
  store i16 %8, ptr %5, align 2
  store i32 15, ptr %6, align 4
  br label %9

9:                                                ; preds = %31, %2
  %10 = load i32, ptr %6, align 4
  %11 = icmp sge i32 %10, 0
  br i1 %11, label %12, label %34

12:                                               ; preds = %9
  %13 = load ptr, ptr %4, align 8
  %14 = load i16, ptr %5, align 2
  %15 = zext i16 %14 to i32
  %16 = load i32, ptr %6, align 4
  %17 = ashr i32 %15, %16
  %18 = and i32 %17, 1
  %19 = icmp ne i32 %18, 0
  %20 = select i1 %19, i8 49, i8 48
  %21 = call noundef nonnull align 8 dereferenceable(8) ptr @_ZStlsISt11char_traitsIcEERSt13basic_ostreamIcT_ES5_c(ptr noundef nonnull align 8 dereferenceable(8) %13, i8 noundef signext %20)
  %22 = load i32, ptr %6, align 4
  %23 = icmp eq i32 %22, 15
  br i1 %23, label %27, label %24

24:                                               ; preds = %12
  %25 = load i32, ptr %6, align 4
  %26 = icmp eq i32 %25, 10
  br i1 %26, label %27, label %30

27:                                               ; preds = %24, %12
  %28 = load ptr, ptr %4, align 8
  %29 = call noundef nonnull align 8 dereferenceable(8) ptr @_ZStlsISt11char_traitsIcEERSt13basic_ostreamIcT_ES5_c(ptr noundef nonnull align 8 dereferenceable(8) %28, i8 noundef signext 32)
  br label %30

30:                                               ; preds = %27, %24
  br label %31

31:                                               ; preds = %30
  %32 = load i32, ptr %6, align 4
  %33 = add nsw i32 %32, -1
  store i32 %33, ptr %6, align 4
  br label %9, !llvm.loop !6

34:                                               ; preds = %9
  ret void
}