; Function Attrs: mustprogress uwtable
define void @_ZN32pxrInternal_v0_24__pxrReserved__8pxr_half9printBitsERSoNS0_4halfE(ptr noundef nonnull align 8 dereferenceable(8) %0, i16 %1) local_unnamed_addr #1 {
  %3 = zext i16 %1 to i32
  br label %4

4:                                                ; preds = %2, %11
  %.08 = phi i32 [ 15, %2 ], [ %12, %11 ]
  %5 = shl nuw i32 1, %.08
  %6 = and i32 %5, %3
  %.not = icmp eq i32 %6, 0
  %7 = select i1 %.not, i8 48, i8 49
  %8 = tail call noundef nonnull align 8 dereferenceable(8) ptr @_ZStlsISt11char_traitsIcEERSt13basic_ostreamIcT_ES5_c(ptr noundef nonnull align 8 dereferenceable(8) %0, i8 noundef signext %7)
  switch i32 %.08, label %11 [
    i32 15, label %9
    i32 10, label %9
  ]

9:                                                ; preds = %4, %4
  %10 = tail call noundef nonnull align 8 dereferenceable(8) ptr @_ZStlsISt11char_traitsIcEERSt13basic_ostreamIcT_ES5_c(ptr noundef nonnull align 8 dereferenceable(8) %0, i8 noundef signext 32)
  br label %11

11:                                               ; preds = %4, %9
  %12 = add nsw i32 %.08, -1
  %.not9 = icmp eq i32 %.08, 0
  br i1 %.not9, label %13, label %4, !llvm.loop !6

13:                                               ; preds = %11
  ret void
}